target datalayout = "e-m:e-p270:32:32-p271:32:32-p272:64:64-i64:64-i128:128-f80:128-n8:16:32:64-S128"
target triple = "x86_64-pc-linux-gnu"

%"class.Imf_3_4::Attribute" = type { ptr }
%"class.Imf_3_4::TypedAttribute.3" = type { %"class.Imf_3_4::Attribute", double }

@_ZTISt9exception = external constant ptr
@_ZN12_GLOBAL__N_112errorMessageE = internal global [1024 x i8] zeroinitializer, align 16
@_ZTIN7Imf_3_49AttributeE = external constant ptr
@.str = private unnamed_addr constant [27 x i8] c"Unexpected attribute type.\00", align 1
@_ZTIN7Iex_3_47TypeExcE = external constant ptr
@_ZTIN7Imf_3_414TypedAttributeIdEE = external constant ptr

; Function Attrs: noinline noreturn nounwind uwtable
define linkonce_odr hidden void @__clang_call_terminate(ptr noundef %0) #11 comdat {
  %2 = call ptr @__cxa_begin_catch(ptr %0) #3
  call void @_ZSt9terminatev() #18
  unreachable
}

; Function Attrs: mustprogress nounwind uwtable
define internal void @_ZN12_GLOBAL__N_115setErrorMessageERKSt9exception(ptr noundef nonnull align 8 dereferenceable(8) %0) #4 {
  %2 = alloca ptr, align 8
  store ptr %0, ptr %2, align 8, !tbaa !23
  %3 = load ptr, ptr %2, align 8, !tbaa !23
  %4 = load ptr, ptr %3, align 8, !tbaa !30
  %5 = getelementptr inbounds ptr, ptr %4, i64 2
  %6 = load ptr, ptr %5, align 8
  %7 = call noundef ptr %6(ptr noundef nonnull align 8 dereferenceable(8) %3) #3
  %8 = call ptr @strncpy(ptr noundef @_ZN12_GLOBAL__N_112errorMessageE, ptr noundef %7, i64 noundef 1023) #3
  store i8 0, ptr getelementptr inbounds ([1024 x i8], ptr @_ZN12_GLOBAL__N_112errorMessageE, i64 0, i64 1023), align 1, !tbaa !32
  ret void
}

; Function Attrs: inlinehint mustprogress nounwind uwtable
define available_externally noundef nonnull align 8 dereferenceable(8) ptr @_ZNK7Imf_3_414TypedAttributeIdE5valueEv(ptr noundef nonnull align 8 dereferenceable(16) %0) #6 align 2 {
  %2 = alloca ptr, align 8
  store ptr %0, ptr %2, align 8, !tbaa !69
  %3 = load ptr, ptr %2, align 8
  %4 = getelementptr inbounds nuw %"class.Imf_3_4::TypedAttribute.3", ptr %3, i32 0, i32 1
  ret ptr %4
}

; Function Attrs: mustprogress uwtable
define linkonce_odr noundef nonnull align 8 dereferenceable(16) ptr @_ZNK7Imf_3_46Header14typedAttributeINS_14TypedAttributeIdEEEERKT_PKc(ptr noundef nonnull align 8 dereferenceable(49) %0, ptr noundef %1) #7 comdat align 2 personality ptr @__gxx_personality_v0 {
  %3 = alloca ptr, align 8
  %4 = alloca ptr, align 8
  %5 = alloca ptr, align 8
  %6 = alloca ptr, align 8
  %7 = alloca ptr, align 8
  %8 = alloca i32, align 4
  store ptr %0, ptr %3, align 8, !tbaa !59
  store ptr %1, ptr %4, align 8, !tbaa !53
  %9 = load ptr, ptr %3, align 8
  call void @llvm.lifetime.start.p0(i64 8, ptr %5) #3
  %10 = load ptr, ptr %4, align 8, !tbaa !53
  %11 = call noundef nonnull align 8 dereferenceable(8) ptr @_ZNK7Imf_3_46HeaderixEPKc(ptr noundef nonnull align 8 dereferenceable(49) %9, ptr noundef %10)
  store ptr %11, ptr %5, align 8, !tbaa !61
  call void @llvm.lifetime.start.p0(i64 8, ptr %6) #3
  %12 = load ptr, ptr %5, align 8, !tbaa !61
  %13 = icmp eq ptr %12, null
  br i1 %13, label %16, label %14

14:                                               ; preds = %2
  %15 = call ptr @__dynamic_cast(ptr %12, ptr @_ZTIN7Imf_3_49AttributeE, ptr @_ZTIN7Imf_3_414TypedAttributeIdEE, i64 0) #3
  br label %17

16:                                               ; preds = %2
  br label %17

17:                                               ; preds = %16, %14
  %18 = phi ptr [ %15, %14 ], [ null, %16 ]
  store ptr %18, ptr %6, align 8, !tbaa !69
  %19 = load ptr, ptr %6, align 8, !tbaa !69
  %20 = icmp eq ptr %19, null
  br i1 %20, label %21, label %28

21:                                               ; preds = %17
  %22 = call ptr @__cxa_allocate_exception(i64 72) #3
  invoke void @_ZN7Iex_3_47TypeExcC1EPKc(ptr noundef nonnull align 8 dereferenceable(72) %22, ptr noundef @.str)
          to label %23 unwind label %24

23:                                               ; preds = %21
  call void @__cxa_throw(ptr %22, ptr @_ZTIN7Iex_3_47TypeExcE, ptr @_ZN7Iex_3_47TypeExcD1Ev) #21
  unreachable

24:                                               ; preds = %21
  %25 = landingpad { ptr, i32 }
          cleanup
  %26 = extractvalue { ptr, i32 } %25, 0
  store ptr %26, ptr %7, align 8
  %27 = extractvalue { ptr, i32 } %25, 1
  store i32 %27, ptr %8, align 4
  call void @__cxa_free_exception(ptr %22) #3
  call void @llvm.lifetime.end.p0(i64 8, ptr %6) #3
  call void @llvm.lifetime.end.p0(i64 8, ptr %5) #3
  br label %30

28:                                               ; preds = %17
  %29 = load ptr, ptr %6, align 8, !tbaa !69
  call void @llvm.lifetime.end.p0(i64 8, ptr %6) #3
  call void @llvm.lifetime.end.p0(i64 8, ptr %5) #3
  ret ptr %29

30:                                               ; preds = %24
  %31 = load ptr, ptr %7, align 8
  %32 = load i32, ptr %8, align 4
  %33 = insertvalue { ptr, i32 } poison, ptr %31, 0
  %34 = insertvalue { ptr, i32 } %33, i32 %32, 1
  resume { ptr, i32 } %34
}

; Function Attrs: inlinehint mustprogress nounwind uwtable
define internal noundef ptr @_ZN12_GLOBAL__N_16headerEPK9ImfHeader(ptr noundef %0) #6 {
  %2 = alloca ptr, align 8
  store ptr %0, ptr %2, align 8, !tbaa !33
  %3 = load ptr, ptr %2, align 8, !tbaa !33
  ret ptr %3
}

; Function Attrs: mustprogress uwtable
define i32 @ImfHeaderDoubleAttribute(ptr noundef %0, ptr noundef %1, ptr noundef %2) #7 personality ptr @__gxx_personality_v0 {
  %4 = alloca i32, align 4
  %5 = alloca ptr, align 8
  %6 = alloca ptr, align 8
  %7 = alloca ptr, align 8
  %8 = alloca ptr, align 8
  %9 = alloca i32, align 4
  %10 = alloca ptr, align 8
  store ptr %0, ptr %5, align 8, !tbaa !33
  store ptr %1, ptr %6, align 8, !tbaa !53
  store ptr %2, ptr %7, align 8, !tbaa !71
  %11 = load ptr, ptr %5, align 8, !tbaa !33
  %12 = invoke noundef ptr @_ZN12_GLOBAL__N_16headerEPK9ImfHeader(ptr noundef %11)
          to label %13 unwind label %21

13:                                               ; preds = %3
  %14 = load ptr, ptr %6, align 8, !tbaa !53
  %15 = invoke noundef nonnull align 8 dereferenceable(16) ptr @_ZNK7Imf_3_46Header14typedAttributeINS_14TypedAttributeIdEEEERKT_PKc(ptr noundef nonnull align 8 dereferenceable(49) %12, ptr noundef %14)
          to label %16 unwind label %21

16:                                               ; preds = %13
  %17 = invoke noundef nonnull align 8 dereferenceable(8) ptr @_ZNK7Imf_3_414TypedAttributeIdE5valueEv(ptr noundef nonnull align 8 dereferenceable(16) %15)
          to label %18 unwind label %21

18:                                               ; preds = %16
  %19 = load double, ptr %17, align 8, !tbaa !67
  %20 = load ptr, ptr %7, align 8, !tbaa !71
  store double %19, ptr %20, align 8, !tbaa !67
  store i32 1, ptr %4, align 4
  br label %40

21:                                               ; preds = %16, %13, %3
  %22 = landingpad { ptr, i32 }
          catch ptr @_ZTISt9exception
  %23 = extractvalue { ptr, i32 } %22, 0
  store ptr %23, ptr %8, align 8
  %24 = extractvalue { ptr, i32 } %22, 1
  store i32 %24, ptr %9, align 4
  br label %25

25:                                               ; preds = %21
  %26 = load i32, ptr %9, align 4
  %27 = call i32 @llvm.eh.typeid.for.p0(ptr @_ZTISt9exception) #3
  %28 = icmp eq i32 %26, %27
  br i1 %28, label %29, label %42

29:                                               ; preds = %25
  call void @llvm.lifetime.start.p0(i64 8, ptr %10) #3
  %30 = load ptr, ptr %8, align 8
  %31 = call ptr @__cxa_begin_catch(ptr %30) #3
  store ptr %31, ptr %10, align 8
  %32 = load ptr, ptr %10, align 8, !tbaa !23
  invoke void @_ZN12_GLOBAL__N_115setErrorMessageERKSt9exception(ptr noundef nonnull align 8 dereferenceable(8) %32)
          to label %33 unwind label %34

33:                                               ; preds = %29
  store i32 0, ptr %4, align 4
  call void @__cxa_end_catch()
  call void @llvm.lifetime.end.p0(i64 8, ptr %10) #3
  br label %40

34:                                               ; preds = %29
  %35 = landingpad { ptr, i32 }
          cleanup
  %36 = extractvalue { ptr, i32 } %35, 0
  store ptr %36, ptr %8, align 8
  %37 = extractvalue { ptr, i32 } %35, 1
  store i32 %37, ptr %9, align 4
  invoke void @__cxa_end_catch()
          to label %38 unwind label %47

38:                                               ; preds = %34
  call void @llvm.lifetime.end.p0(i64 8, ptr %10) #3
  br label %42

39:                                               ; No predecessors!
  unreachable

40:                                               ; preds = %33, %18
  %41 = load i32, ptr %4, align 4
  ret i32 %41

42:                                               ; preds = %38, %25
  %43 = load ptr, ptr %8, align 8
  %44 = load i32, ptr %9, align 4
  %45 = insertvalue { ptr, i32 } poison, ptr %43, 0
  %46 = insertvalue { ptr, i32 } %45, i32 %44, 1
  resume { ptr, i32 } %46

47:                                               ; preds = %34
  %48 = landingpad { ptr, i32 }
          catch ptr null
  %49 = extractvalue { ptr, i32 } %48, 0
  call void @__clang_call_terminate(ptr %49) #18
  unreachable
}